target datalayout = "e-m:e-p270:32:32-p271:32:32-p272:64:64-i64:64-i128:128-f80:128-n8:16:32:64-S128"
target triple = "x86_64-pc-linux-gnu"

%struct._XSettingsList = type { ptr, ptr }
%struct._XSettingsSetting = type { ptr, i32, %union.anon.1, i64 }
%union.anon.1 = type { ptr }

; Function Attrs: nounwind uwtable
define hidden i32 @xsettings_list_insert(ptr noundef %0, ptr noundef %1) #0 {
  %3 = alloca i32, align 4
  %4 = alloca ptr, align 8
  %5 = alloca ptr, align 8
  %6 = alloca ptr, align 8
  %7 = alloca ptr, align 8
  %8 = alloca ptr, align 8
  %9 = alloca i32, align 4
  %10 = alloca i32, align 4
  store ptr %0, ptr %4, align 8
  store ptr %1, ptr %5, align 8
  call void @llvm.lifetime.start.p0(i64 8, ptr %6) #6
  call void @llvm.lifetime.start.p0(i64 8, ptr %7) #6
  call void @llvm.lifetime.start.p0(i64 8, ptr %8) #6
  store ptr null, ptr %8, align 8
  %11 = call noalias ptr @malloc(i64 noundef 16) #7
  store ptr %11, ptr %6, align 8
  %12 = load ptr, ptr %6, align 8
  %13 = icmp ne ptr %12, null
  br i1 %13, label %15, label %14

14:                                               ; preds = %2
  store i32 1, ptr %3, align 4
  store i32 1, ptr %9, align 4
  br label %65

15:                                               ; preds = %2
  %16 = load ptr, ptr %5, align 8
  %17 = load ptr, ptr %6, align 8
  %18 = getelementptr inbounds nuw %struct._XSettingsList, ptr %17, i32 0, i32 0
  store ptr %16, ptr %18, align 8
  %19 = load ptr, ptr %4, align 8
  %20 = load ptr, ptr %19, align 8
  store ptr %20, ptr %7, align 8
  br label %21

21:                                               ; preds = %50, %15
  %22 = load ptr, ptr %7, align 8
  %23 = icmp ne ptr %22, null
  br i1 %23, label %24, label %51

24:                                               ; preds = %21
  call void @llvm.lifetime.start.p0(i64 4, ptr %10) #6
  %25 = load ptr, ptr %5, align 8
  %26 = getelementptr inbounds nuw %struct._XSettingsSetting, ptr %25, i32 0, i32 0
  %27 = load ptr, ptr %26, align 8
  %28 = load ptr, ptr %7, align 8
  %29 = getelementptr inbounds nuw %struct._XSettingsList, ptr %28, i32 0, i32 0
  %30 = load ptr, ptr %29, align 8
  %31 = getelementptr inbounds nuw %struct._XSettingsSetting, ptr %30, i32 0, i32 0
  %32 = load ptr, ptr %31, align 8
  %33 = call i32 @strcmp(ptr noundef %27, ptr noundef %32) #8
  store i32 %33, ptr %10, align 4
  %34 = load i32, ptr %10, align 4
  %35 = icmp slt i32 %34, 0
  br i1 %35, label %36, label %37

36:                                               ; preds = %24
  store i32 3, ptr %9, align 4
  br label %48

37:                                               ; preds = %24
  %38 = load i32, ptr %10, align 4
  %39 = icmp eq i32 %38, 0
  br i1 %39, label %40, label %42

40:                                               ; preds = %37
  %41 = load ptr, ptr %6, align 8
  call void @free(ptr noundef %41) #6
  store i32 5, ptr %3, align 4
  store i32 1, ptr %9, align 4
  br label %48

42:                                               ; preds = %37
  br label %43

43:                                               ; preds = %42
  %44 = load ptr, ptr %7, align 8
  store ptr %44, ptr %8, align 8
  %45 = load ptr, ptr %7, align 8
  %46 = getelementptr inbounds nuw %struct._XSettingsList, ptr %45, i32 0, i32 1
  %47 = load ptr, ptr %46, align 8
  store ptr %47, ptr %7, align 8
  store i32 0, ptr %9, align 4
  br label %48

48:                                               ; preds = %43, %40, %36
  call void @llvm.lifetime.end.p0(i64 4, ptr %10) #6
  %49 = load i32, ptr %9, align 4
  switch i32 %49, label %65 [
    i32 0, label %50
    i32 3, label %51
  ]

50:                                               ; preds = %48
  br label %21, !llvm.loop !7

51:                                               ; preds = %48, %21
  %52 = load ptr, ptr %8, align 8
  %53 = icmp ne ptr %52, null
  br i1 %53, label %54, label %58

54:                                               ; preds = %51
  %55 = load ptr, ptr %6, align 8
  %56 = load ptr, ptr %8, align 8
  %57 = getelementptr inbounds nuw %struct._XSettingsList, ptr %56, i32 0, i32 1
  store ptr %55, ptr %57, align 8
  br label %61

58:                                               ; preds = %51
  %59 = load ptr, ptr %6, align 8
  %60 = load ptr, ptr %4, align 8
  store ptr %59, ptr %60, align 8
  br label %61

61:                                               ; preds = %58, %54
  %62 = load ptr, ptr %7, align 8
  %63 = load ptr, ptr %6, align 8
  %64 = getelementptr inbounds nuw %struct._XSettingsList, ptr %63, i32 0, i32 1
  store ptr %62, ptr %64, align 8
  store i32 0, ptr %3, align 4
  store i32 1, ptr %9, align 4
  br label %65

65:                                               ; preds = %61, %48, %14
  call void @llvm.lifetime.end.p0(i64 8, ptr %8) #6
  call void @llvm.lifetime.end.p0(i64 8, ptr %7) #6
  call void @llvm.lifetime.end.p0(i64 8, ptr %6) #6
  %66 = load i32, ptr %3, align 4
  ret i32 %66
}