; Function Attrs: nounwind uwtable
define hidden range(i32 0, 6) i32 @xsettings_list_insert(ptr noundef captures(none) %0, ptr noundef %1) local_unnamed_addr #0 {
  %3 = tail call noalias dereferenceable_or_null(16) ptr @malloc(i64 noundef 16) #15
  %.not = icmp eq ptr %3, null
  br i1 %.not, label %22, label %4

4:                                                ; preds = %2
  store ptr %1, ptr %3, align 8
  %.02440 = load ptr, ptr %0, align 8
  %.not2941 = icmp eq ptr %.02440, null
  br i1 %.not2941, label %.thread34.thread, label %.lr.ph

.lr.ph:                                           ; preds = %4
  %5 = load ptr, ptr %1, align 8
  %6 = load ptr, ptr %.02440, align 8
  %7 = load ptr, ptr %6, align 8
  %8 = tail call i32 @strcmp(ptr noundef nonnull dereferenceable(1) %5, ptr noundef nonnull dereferenceable(1) %7) #16
  %9 = icmp slt i32 %8, 0
  br i1 %9, label %.thread34, label %.lr.ph68

10:                                               ; preds = %17
  %11 = load ptr, ptr %.024, align 8
  %12 = load ptr, ptr %11, align 8
  %13 = tail call i32 @strcmp(ptr noundef nonnull dereferenceable(1) %5, ptr noundef nonnull dereferenceable(1) %12) #16
  %14 = icmp slt i32 %13, 0
  br i1 %14, label %.thread34, label %.lr.ph68

.lr.ph68:                                         ; preds = %.lr.ph, %10
  %15 = phi i32 [ %13, %10 ], [ %8, %.lr.ph ]
  %.0244367 = phi ptr [ %.024, %10 ], [ %.02440, %.lr.ph ]
  %16 = icmp eq i32 %15, 0
  br i1 %16, label %.thread, label %17

.thread:                                          ; preds = %.lr.ph68
  tail call void @free(ptr noundef %3) #14
  br label %22

17:                                               ; preds = %.lr.ph68
  %18 = getelementptr inbounds nuw i8, ptr %.0244367, i64 8
  %.024 = load ptr, ptr %18, align 8
  %.not29 = icmp eq ptr %.024, null
  br i1 %.not29, label %.thread34.thread53, label %10

.thread34:                                        ; preds = %10, %.lr.ph
  %.02443.lcssa = phi ptr [ %.02440, %.lr.ph ], [ %.024, %10 ]
  %.02142.lcssa = phi ptr [ null, %.lr.ph ], [ %.0244367, %10 ]
  %.not30 = icmp eq ptr %.02142.lcssa, null
  br i1 %.not30, label %.thread34.thread, label %.thread34.thread53

.thread34.thread53:                               ; preds = %17, %.thread34
  %.024.lcssa58 = phi ptr [ %.02443.lcssa, %.thread34 ], [ null, %17 ]
  %.021.lcssa57 = phi ptr [ %.02142.lcssa, %.thread34 ], [ %.0244367, %17 ]
  %19 = getelementptr inbounds nuw i8, ptr %.021.lcssa57, i64 8
  store ptr %3, ptr %19, align 8
  br label %20

.thread34.thread:                                 ; preds = %4, %.thread34
  %.024.lcssa52 = phi ptr [ %.02443.lcssa, %.thread34 ], [ null, %4 ]
  store ptr %3, ptr %0, align 8
  br label %20

20:                                               ; preds = %.thread34.thread, %.thread34.thread53
  %.024.lcssa51 = phi ptr [ %.024.lcssa52, %.thread34.thread ], [ %.024.lcssa58, %.thread34.thread53 ]
  %21 = getelementptr inbounds nuw i8, ptr %3, i64 8
  store ptr %.024.lcssa51, ptr %21, align 8
  br label %22

22:                                               ; preds = %.thread, %2, %20
  %.0 = phi i32 [ 0, %20 ], [ 1, %2 ], [ 5, %.thread ]
  ret i32 %.0
}